target datalayout = "e-m:e-p270:32:32-p271:32:32-p272:64:64-i64:64-i128:128-f80:128-n8:16:32:64-S128"
target triple = "x86_64-unknown-linux-gnu"

%"class.std::vector.109" = type { %"struct.std::_Vector_base.110" }
%"struct.std::_Vector_base.110" = type { %"struct.std::_Vector_base<unsigned long, std::allocator<unsigned long>>::_Vector_impl" }
%"struct.std::_Vector_base<unsigned long, std::allocator<unsigned long>>::_Vector_impl" = type { %"struct.std::_Vector_base<unsigned long, std::allocator<unsigned long>>::_Vector_impl_data" }
%"struct.std::_Vector_base<unsigned long, std::allocator<unsigned long>>::_Vector_impl_data" = type { ptr, ptr, ptr }
%"class.facebook::velox::DecodedVector" = type { i32, ptr, ptr, ptr, %"class.std::optional.199", ptr, i8, i8, i8, i8, i8, i32, %"class.std::vector.207", %"class.std::vector.109" }
%"class.std::optional.199" = type { %"struct.std::_Optional_base.200" }
%"struct.std::_Optional_base.200" = type { %"struct.std::_Optional_payload.202" }
%"struct.std::_Optional_payload.202" = type { %"struct.std::_Optional_payload_base.base.204", [7 x i8] }
%"struct.std::_Optional_payload_base.base.204" = type <{ %"union.std::_Optional_payload_base<const unsigned long *>::_Storage", i8 }>
%"union.std::_Optional_payload_base<const unsigned long *>::_Storage" = type { ptr }
%"class.std::vector.207" = type { %"struct.std::_Vector_base.208" }
%"struct.std::_Vector_base.208" = type { %"struct.std::_Vector_base<int, std::allocator<int>>::_Vector_impl" }
%"struct.std::_Vector_base<int, std::allocator<int>>::_Vector_impl" = type { %"struct.std::_Vector_base<int, std::allocator<int>>::_Vector_impl_data" }
%"struct.std::_Vector_base<int, std::allocator<int>>::_Vector_impl_data" = type { ptr, ptr, ptr }

; Function Attrs: mustprogress nounwind uwtable
define linkonce_odr noundef i32 @_ZNK8facebook5velox13DecodedVector5indexEi(ptr noundef nonnull align 8 dereferenceable(120) %this, i32 noundef %idx) #2 comdat align 2 {
entry:
  %retval = alloca i32, align 4
  %this.addr = alloca ptr, align 8
  %idx.addr = alloca i32, align 4
  store ptr %this, ptr %this.addr, align 8
  store i32 %idx, ptr %idx.addr, align 4
  %this1 = load ptr, ptr %this.addr, align 8
  %isIdentityMapping_ = getelementptr inbounds %"class.facebook::velox::DecodedVector", ptr %this1, i32 0, i32 8
  %0 = load i8, ptr %isIdentityMapping_, align 2
  %tobool = trunc i8 %0 to i1
  br i1 %tobool, label %if.then, label %if.end

if.then:                                          ; preds = %entry
  %1 = load i32, ptr %idx.addr, align 4
  store i32 %1, ptr %retval, align 4
  br label %return

if.end:                                           ; preds = %entry
  %isConstantMapping_ = getelementptr inbounds %"class.facebook::velox::DecodedVector", ptr %this1, i32 0, i32 9
  %2 = load i8, ptr %isConstantMapping_, align 1
  %tobool2 = trunc i8 %2 to i1
  br i1 %tobool2, label %if.then3, label %if.end4

if.then3:                                         ; preds = %if.end
  %constantIndex_ = getelementptr inbounds %"class.facebook::velox::DecodedVector", ptr %this1, i32 0, i32 11
  %3 = load i32, ptr %constantIndex_, align 8
  store i32 %3, ptr %retval, align 4
  br label %return

if.end4:                                          ; preds = %if.end
  %indices_ = getelementptr inbounds %"class.facebook::velox::DecodedVector", ptr %this1, i32 0, i32 1
  %4 = load ptr, ptr %indices_, align 8
  %5 = load i32, ptr %idx.addr, align 4
  %idxprom = sext i32 %5 to i64
  %arrayidx = getelementptr inbounds i32, ptr %4, i64 %idxprom
  %6 = load i32, ptr %arrayidx, align 4
  store i32 %6, ptr %retval, align 4
  br label %return

return:                                           ; preds = %if.end4, %if.then3, %if.then
  %7 = load i32, ptr %retval, align 4
  ret i32 %7
}

; Function Attrs: mustprogress nounwind uwtable
define linkonce_odr noundef zeroext i1 @_ZSt8isfinited(double noundef %__x) #2 comdat {
entry:
  %__x.addr = alloca double, align 8
  store double %__x, ptr %__x.addr, align 8
  %0 = load double, ptr %__x.addr, align 8
  %1 = call i1 @llvm.is.fpclass.f64(double %0, i32 504)
  ret i1 %1
}

; Function Attrs: mustprogress uwtable
define linkonce_odr noundef double @_ZNK8facebook5velox13DecodedVector7valueAtIdEET_i(ptr noundef nonnull align 8 dereferenceable(120) %this, i32 noundef %idx) #0 comdat align 2 {
entry:
  %this.addr = alloca ptr, align 8
  %idx.addr = alloca i32, align 4
  store ptr %this, ptr %this.addr, align 8
  store i32 %idx, ptr %idx.addr, align 4
  %this1 = load ptr, ptr %this.addr, align 8
  %data_ = getelementptr inbounds %"class.facebook::velox::DecodedVector", ptr %this1, i32 0, i32 2
  %0 = load ptr, ptr %data_, align 8
  %1 = load i32, ptr %idx.addr, align 4
  %call = call noundef i32 @_ZNK8facebook5velox13DecodedVector5indexEi(ptr noundef nonnull align 8 dereferenceable(120) %this1, i32 noundef %1)
  %idxprom = sext i32 %call to i64
  %arrayidx = getelementptr inbounds double, ptr %0, i64 %idxprom
  %2 = load double, ptr %arrayidx, align 8
  ret double %2
}

; Function Attrs: mustprogress nounwind uwtable
define linkonce_odr noundef zeroext i1 @_ZSt5isnand(double noundef %__x) #2 comdat {
entry:
  %__x.addr = alloca double, align 8
  store double %__x, ptr %__x.addr, align 8
  %0 = load double, ptr %__x.addr, align 8
  %1 = call i1 @llvm.is.fpclass.f64(double %0, i32 3)
  ret i1 %1
}

; Function Attrs: mustprogress uwtable
define internal noundef i64 @_ZN8facebook5velox9functions12_GLOBAL__N_111widthBucketIdEEldRNS0_13DecodedVectorEii(double noundef %operand, ptr noundef nonnull align 8 dereferenceable(120) %elementsHolder, i32 noundef %offset, i32 noundef %binCount) #0 {
entry:
  %operand.addr = alloca double, align 8
  %elementsHolder.addr = alloca ptr, align 8
  %offset.addr = alloca i32, align 4
  %binCount.addr = alloca i32, align 4
  %lower = alloca i32, align 4
  %upper = alloca i32, align 4
  %index = alloca i32, align 4
  %bin = alloca double, align 8
  store double %operand, ptr %operand.addr, align 8
  store ptr %elementsHolder, ptr %elementsHolder.addr, align 8
  store i32 %offset, ptr %offset.addr, align 4
  store i32 %binCount, ptr %binCount.addr, align 4
  %0 = load i32, ptr %binCount.addr, align 4
  %cmp = icmp sgt i32 %0, 0
  %lnot = xor i1 %cmp, true
  br i1 %lnot, label %if.then, label %if.end

if.then:                                          ; preds = %entry
  call void @llvm.trap()
  br label %if.end

if.end:                                           ; preds = %if.then, %entry
  %1 = load double, ptr %operand.addr, align 8
  %call = call noundef zeroext i1 @_ZSt5isnand(double noundef %1)
  %lnot1 = xor i1 %call, true
  %lnot2 = xor i1 %lnot1, true
  br i1 %lnot2, label %if.then3, label %if.end4

if.then3:                                         ; preds = %if.end
  call void @llvm.trap()
  br label %if.end4

if.end4:                                          ; preds = %if.then3, %if.end
  store i32 0, ptr %lower, align 4
  %2 = load i32, ptr %binCount.addr, align 4
  store i32 %2, ptr %upper, align 4
  br label %while.cond

while.cond:                                       ; preds = %if.end23, %if.end4
  %3 = load i32, ptr %lower, align 4
  %4 = load i32, ptr %upper, align 4
  %cmp5 = icmp slt i32 %3, %4
  br i1 %cmp5, label %while.body, label %while.end

while.body:                                       ; preds = %while.cond
  %5 = load ptr, ptr %elementsHolder.addr, align 8
  %6 = load i32, ptr %offset.addr, align 4
  %7 = load i32, ptr %lower, align 4
  %add = add nsw i32 %6, %7
  %call6 = call noundef double @_ZNK8facebook5velox13DecodedVector7valueAtIdEET_i(ptr noundef nonnull align 8 dereferenceable(120) %5, i32 noundef %add)
  %8 = load ptr, ptr %elementsHolder.addr, align 8
  %9 = load i32, ptr %offset.addr, align 4
  %10 = load i32, ptr %upper, align 4
  %add7 = add nsw i32 %9, %10
  %sub = sub nsw i32 %add7, 1
  %call8 = call noundef double @_ZNK8facebook5velox13DecodedVector7valueAtIdEET_i(ptr noundef nonnull align 8 dereferenceable(120) %8, i32 noundef %sub)
  %cmp9 = fcmp ole double %call6, %call8
  %lnot10 = xor i1 %cmp9, true
  br i1 %lnot10, label %if.then11, label %if.end12

if.then11:                                        ; preds = %while.body
  call void @llvm.trap()
  br label %if.end12

if.end12:                                         ; preds = %if.then11, %while.body
  %11 = load i32, ptr %lower, align 4
  %12 = load i32, ptr %upper, align 4
  %add13 = add nsw i32 %11, %12
  %div = sdiv i32 %add13, 2
  store i32 %div, ptr %index, align 4
  %13 = load ptr, ptr %elementsHolder.addr, align 8
  %14 = load i32, ptr %offset.addr, align 4
  %15 = load i32, ptr %index, align 4
  %add14 = add nsw i32 %14, %15
  %call15 = call noundef double @_ZNK8facebook5velox13DecodedVector7valueAtIdEET_i(ptr noundef nonnull align 8 dereferenceable(120) %13, i32 noundef %add14)
  store double %call15, ptr %bin, align 8
  %16 = load double, ptr %bin, align 8
  %call16 = call noundef zeroext i1 @_ZSt8isfinited(double noundef %16)
  %lnot17 = xor i1 %call16, true
  br i1 %lnot17, label %if.then18, label %if.end19

if.then18:                                        ; preds = %if.end12
  call void @llvm.trap()
  br label %if.end19

if.end19:                                         ; preds = %if.then18, %if.end12
  %17 = load double, ptr %operand.addr, align 8
  %18 = load double, ptr %bin, align 8
  %cmp20 = fcmp olt double %17, %18
  br i1 %cmp20, label %if.then21, label %if.else

if.then21:                                        ; preds = %if.end19
  %19 = load i32, ptr %index, align 4
  store i32 %19, ptr %upper, align 4
  br label %if.end23

if.else:                                          ; preds = %if.end19
  %20 = load i32, ptr %index, align 4
  %add22 = add nsw i32 %20, 1
  store i32 %add22, ptr %lower, align 4
  br label %if.end23

if.end23:                                         ; preds = %if.else, %if.then21
  br label %while.cond, !llvm.loop !39

while.end:                                        ; preds = %while.cond
  %21 = load i32, ptr %lower, align 4
  %conv = sext i32 %21 to i64
  ret i64 %conv
}